(lp0
(dp1
Vdomain
p2
Vwww.officeally.com
p3
sVsecure
p4
I00
sVvalue
p5
VJTdCJTdE
p6
sVexpiry
p7
I1639887077
sVpath
p8
V/
p9
sVhttpOnly
p10
I00
sVname
p11
V_docereeDmdContext
p12
sa(dp13
Vdomain
p14
Vwww.officeally.com
p15
sVname
p16
Vdmd-ahk
p17
sVvalue
p18
Vb08d58c3cf
p19
sVexpiry
p20
I1637296877
sVsameSite
p21
VLax
p22
sVpath
p23
g9
sVhttpOnly
p24
I00
sVsecure
p25
I00
sa(dp26
Vdomain
p27
Vwww.officeally.com
p28
sVname
p29
V_pk_id.1.899c
p30
sVvalue
p31
Vd88ad2e1bdd94e73.1637294508.
p32
sVexpiry
p33
I1671249708
sVsameSite
p34
VLax
p35
sVpath
p36
g9
sVhttpOnly
p37
I00
sVsecure
p38
I00
sa(dp39
Vdomain
p40
Vwww.officeally.com
p41
sVname
p42
VTRK
p43
sVvalue
p44
VTRKURSID=546844
p45
sVpath
p46
g9
sVhttpOnly
p47
I00
sVsecure
p48
I00
sa(dp49
Vdomain
p50
Vwww.officeally.com
p51
sVsecure
p52
I00
sVvalue
p53
VPostDate=12%2F30%2F2016&Popped=False
p54
sVexpiry
p55
I1645071077
sVpath
p56
g9
sVhttpOnly
p57
I00
sVname
p58
VNews
p59
sa(dp60
Vdomain
p61
V.officeally.com
p62
sVsecure
p63
I00
sVvalue
p64
V8A6057137937E725D8B1F5897C835EFC14CA25957C2B261F89977307D467157341BDA8ACBEFF6C07DF12FBEE35FFE821F83889963C9B28F97A096AA551D318D09551D09092FE321A8729FF38BE89B77BD9C8A539DE70AD6D11E3DC6081FCA76BC216598B4CFE192D8E36AA3347A61213A8179920
p65
sVsameSite
p66
VLax
p67
sVpath
p68
g9
sVhttpOnly
p69
I01
sVname
p70
VRegistrationCookie
p71
sa(dp72
Vdomain
p73
V.www.officeally.com
p74
sVname
p75
V__RequestVerificationToken
p76
sVvalue
p77
Vl0z16emVMvqOl26zyfmhLhC9Xi7xdaq4csfzscNq2hbyDwTZ7cELuk6WAIvrz4olLk7DGABK_w1VLqKfUSnyBLrHYjmT8QA86edkD9H_xhHuEA9m0Vut_v_nN36mE_myTB5Yvw2
p78
sVpath
p79
g9
sVhttpOnly
p80
I01
sVsecure
p81
I01
sa(dp82
Vdomain
p83
Vwww.officeally.com
p84
sVname
p85
Vf5avr1492537764aaaaaaaaaaaaaaaa_cspm_
p86
sVvalue
p87
VIJGGILJGLINNIHPJAGPOCLOHNDHBCJJNPNMMGIGJIAAGGMJCMMACCABLGACCNPFPBAGCLPEIBBEAELJDGFGAAMPOAFODJOAINCLBPECHHOMNKGDJJHPJJHKAMKDJKJKP
p88
sVpath
p89
g9
sVhttpOnly
p90
I00
sVsecure
p91
I00
sa(dp92
Vdomain
p93
V.www.officeally.com
p94
sVsecure
p95
I01
sVvalue
p96
Vmw1u2ijhxjofllk3ub0qltz2
p97
sVsameSite
p98
VLax
p99
sVpath
p100
g9
sVhttpOnly
p101
I01
sVname
p102
VASP.NET_SessionId
p103
sa(dp104
Vdomain
p105
V.www.officeally.com
p106
sVname
p107
V__RequestVerificationToken_L29h0
p108
sVvalue
p109
VE1ey6Z9ZXNn2c3PXflLOZz9-JUVFQFZmyocxIxbiPGqs8lCNQtTzQlAdOYIfN67Ty9vtlEAe9kQunhQpN5C-EupMVDA9SyQ_D_Sa5GeMPIgmehtnDQ_l2nmsOvI0n59PT5YFbQ2
p110
sVpath
p111
g9
sVhttpOnly
p112
I01
sVsecure
p113
I01
sa(dp114
Vdomain
p115
V.www.officeally.com
p116
sVname
p117
VTS01eed9d2
p118
sVvalue
p119
V01d3f17374bf7febd4d3bb2a47dde062e24c5cfa6bf6719c78e1cc6da5b6d237dec8077d792b80e95d2f927c3e0adeaca97d379db68789540af55b9f63815caa23dd31cdb025007f0fb401b946531aa60313655263ebd85fc61aa54c60c0302127cbe9d30bbd2f0011f1d9aeb1ec842f6fe8b2556f9521b6e51e36d4a0923e8483b37252dffd224515d2f19b54edbf214528fb702b475f613a02c6b37e78fe067fa725362b3d3d927ef74f3a2d3c47425effc712e9d0f5fd8cff8825ec7680e960cac2f86da9cc012a8b1c759fdd4e1af10b74f5254c9f964f58a6f408bd85a3026ff041202df3e2f81f84e10074d00c62878d95c5f7a41034d7073c05bc6e6b0fda31fe4f6b490ba10131962dda3bb64077b58373
p120
sVpath
p121
g9
sVhttpOnly
p122
I00
sVsecure
p123
I00
sa(dp124
Vdomain
p125
V.www.officeally.com
p126
sVsecure
p127
I01
sVvalue
p128
VAcknowledged
p129
sVexpiry
p130
I1639886509
sVpath
p131
g9
sVhttpOnly
p132
I00
sVname
p133
VReleaseMaintenance557
p134
sa(dp135
Vdomain
p136
V.www.officeally.com
p137
sVname
p138
V_sess
p139
sVvalue
p140
Vd93ec3c5-d02f-464f-a953-b6c459e07e33.d7d4fc52-c447-45d3-8aef-96f21052268d.1637294508.1
p141
sVexpiry
p142
I1637296308
sVsameSite
p143
VLax
p144
sVpath
p145
g9
sVhttpOnly
p146
I00
sVsecure
p147
I01
sa(dp148
Vdomain
p149
V.officeally.com
p150
sVsecure
p151
I00
sVvalue
p152
VOffset=-8
p153
sVexpiry
p154
I1668831077
sVpath
p155
g9
sVhttpOnly
p156
I00
sVname
p157
VUTCInfo
p158
sa(dp159
Vdomain
p160
V.www.officeally.com
p161
sVname
p162
VNewsChecked
p163
sVvalue
p164
VTrue
p165
sVpath
p166
g9
sVhttpOnly
p167
I00
sVsecure
p168
I01
sa(dp169
Vdomain
p170
V.www.officeally.com
p171
sVname
p172
V_pk_ses.1.899c
p173
sVvalue
p174
V1
p175
sVexpiry
p176
I1637296813
sVsameSite
p177
VLax
p178
sVpath
p179
g9
sVhttpOnly
p180
I00
sVsecure
p181
I01
sa(dp182
Vdomain
p183
V.www.officeally.com
p184
sVsecure
p185
I01
sVvalue
p186
VPopped=False&PostDate=12%2F30%2F2016
p187
sVexpiry
p188
I1645070506
sVpath
p189
g9
sVhttpOnly
p190
I00
sVname
p191
VNews
p192
sa(dp193
Vdomain
p194
V.www.officeally.com
p195
sVname
p196
VTSab09395b027
p197
sVvalue
p198
V08698d7e6aab2000925aecb2db27d2944b8316f7683363ad50ec8043424d36b596eb888bdf17a570089258e710113000cb89d52acc3e27fbfca343affcfeecc0c359c46e36addf9c0fb1d1f874fc863f8c6ef9004432e2021626da80f6d08428
p199
sVpath
p200
g9
sVhttpOnly
p201
I00
sVsecure
p202
I01
sa(dp203
Vdomain
p204
V.www.officeally.com
p205
sVsecure
p206
I01
sVvalue
p207
V2021-11-17 15:06:38
p208
sVexpiry
p209
I1639886508
sVpath
p210
g9
sVhttpOnly
p211
I00
sVname
p212
VMaintenancePopUpID
p213
sa(dp214
Vdomain
p215
V.www.officeally.com
p216
sVname
p217
VOASID
p218
sVvalue
p219
V0A02011CFA684FD8993515A36CC94D11
p220
sVpath
p221
g9
sVhttpOnly
p222
I00
sVsecure
p223
I01
sa(dp224
Vdomain
p225
V.officeally.com
p226
sVsecure
p227
I00
sVvalue
p228
VZone=Pacific+Standard+Time
p229
sVexpiry
p230
I1668831077
sVpath
p231
g9
sVhttpOnly
p232
I00
sVname
p233
VoaClientTimezone
p234
sa(dp235
Vdomain
p236
V.www.officeally.com
p237
sVname
p238
Vdmd-sid
p239
sVvalue
p240
Vd93ec3c5-d02f-464f-a953-b6c459e07e33
p241
sVexpiry
p242
I1637296308
sVsameSite
p243
VLax
p244
sVpath
p245
g9
sVhttpOnly
p246
I00
sVsecure
p247
I01
sa(dp248
Vdomain
p249
V.www.officeally.com
p250
sVname
p251
V_pk_id.1.899c
p252
sVvalue
p253
Vd88ad2e1bdd94e73.1637294508.
p254
sVexpiry
p255
I1671249708
sVsameSite
p256
VLax
p257
sVpath
p258
g9
sVhttpOnly
p259
I00
sVsecure
p260
I01
sa(dp261
Vdomain
p262
V.www.officeally.com
p263
sVname
p264
V_docereeId
p265
sVvalue
p266
V{"platformUid":"519a06d2-e669-497b-828e-c7388fab890f","version":"0.1"}
p267
sVpath
p268
g9
sVhttpOnly
p269
I00
sVsecure
p270
I01
sa(dp271
Vdomain
p272
V.www.officeally.com
p273
sVname
p274
VASPSESSIONIDAQSDDASS
p275
sVvalue
p276
VPABDCLADDMLAEFONIMEGPJEB
p277
sVpath
p278
g9
sVhttpOnly
p279
I00
sVsecure
p280
I01
sa(dp281
Vdomain
p282
V.www.officeally.com
p283
sVname
p284
Vdmd-vid
p285
sVvalue
p286
Vd7d4fc52-c447-45d3-8aef-96f21052268d
p287
sVexpiry
p288
I1637296308
sVsameSite
p289
VLax
p290
sVpath
p291
g9
sVhttpOnly
p292
I00
sVsecure
p293
I01
sa(dp294
Vdomain
p295
V.officeally.com
p296
sVname
p297
VTS01fd912a
p298
sVvalue
p299
V01d3f17374356677e5804fe020203d4738a0ebb473867bb3c460610fb5901179b95f9f9a3a3aa2778a529a212ebfaef29f0cb99cc04c180f0121edde31091d796ab85a5e3450cafbd8999b0d4ef06adfa4cb15e2c3b9286773078e474a674ef3917a061cc8
p300
sVpath
p301
g9
sVhttpOnly
p302
I00
sVsecure
p303
I00
sa(dp304
Vdomain
p305
V.www.officeally.com
p306
sVname
p307
VOA%5FLoginAttempt
p308
sVvalue
p309
g175
sVpath
p310
g9
sVhttpOnly
p311
I00
sVsecure
p312
I01
sa(dp313
Vdomain
p314
V.www.officeally.com
p315
sVname
p316
Vf5avr1492537764aaaaaaaaaaaaaaaa_cspm_
p317
sVvalue
p318
VJCHJONHOBIDLPMKCNLKDBFGODKNDBKMPNHGNLBEAIPIDGHOAHKILCBKJLIOCBGCONFICDDGKDNEKBGNNNNNADHPGAGEDGJCLGGJAGOCPPGBFNPPOKJEALKNPKODMEFKL
p319
sVpath
p320
g9
sVhttpOnly
p321
I00
sVsecure
p322
I01
sa(dp323
Vdomain
p324
Vwww.officeally.com
p325
sVname
p326
V_pk_ses.1.899c
p327
sVvalue
p328
g175
sVexpiry
p329
I1637296877
sVsameSite
p330
VLax
p331
sVpath
p332
g9
sVhttpOnly
p333
I00
sVsecure
p334
I00
sa(dp335
Vdomain
p336
V.www.officeally.com
p337
sVname
p338
Vdmd-ahk
p339
sVvalue
p340
Vb08d58c3cf
p341
sVexpiry
p342
I1637296387
sVsameSite
p343
VLax
p344
sVpath
p345
g9
sVhttpOnly
p346
I00
sVsecure
p347
I01
sa(dp348
Vdomain
p349
Vwww.officeally.com
p350
sVname
p351
VTSab09395b027
p352
sVvalue
p353
V08698d7e6aab200012e8ef7a5444526b9958dbff71bb7fdbf603aa43de0999ae72cabb42312865170814326ec9113000b396375dfcb5defe5a7e1cdc8bfb37d191a45db5c0674d5f0f1bb17fff792e7600a3facf8a120ad525ebff70855deeee
p354
sVpath
p355
g9
sVhttpOnly
p356
I00
sVsecure
p357
I00
sa(dp358
Vdomain
p359
V.www.officeally.com
p360
sVname
p361
VCCVendorID
p362
sVvalue
p363
V0
p364
sVpath
p365
g9
sVhttpOnly
p366
I00
sVsecure
p367
I01
sa(dp368
Vdomain
p369
V.www.officeally.com
p370
sVname
p371
VTRK
p372
sVvalue
p373
VTRKURSID=546844
p374
sVpath
p375
g9
sVhttpOnly
p376
I00
sVsecure
p377
I01
sa(dp378
Vdomain
p379
V.www.officeally.com
p380
sVsecure
p381
I01
sVvalue
p382
VTrue
p383
sVexpiry
p384
I1639886509
sVpath
p385
g9
sVhttpOnly
p386
I00
sVname
p387
VAllMaintencePopUpAcknowledged
p388
sa(dp389
Vdomain
p390
V.www.officeally.com
p391
sVsecure
p392
I01
sVvalue
p393
VJTdCJTdE
p394
sVexpiry
p395
I1639886508
sVpath
p396
g9
sVhttpOnly
p397
I00
sVname
p398
V_docereeDmdContext
p399
sa(dp400
Vdomain
p401
V.www.officeally.com
p402
sVname
p403
Vdmd-signal-160-2655-D7D48E5B-d93ec3c5-d02f-464f-a953-b6c459e07e33
p404
sVvalue
p405
Ve30=
p406
sVexpiry
p407
I1637296387
sVsameSite
p408
VLax
p409
sVpath
p410
g9
sVhttpOnly
p411
I00
sVsecure
p412
I01
sa(dp413
Vdomain
p414
V.www.officeally.com
p415
sVname
p416
VOLEOptions
p417
sVvalue
p418
V
p419
sVpath
p420
g9
sVhttpOnly
p421
I00
sVsecure
p422
I01
sa(dp423
Vdomain
p424
Vwww.officeally.com
p425
sVname
p426
V__RequestVerificationToken
p427
sVvalue
p428
VTIBsQHSTj_YS-HFEW253RoCT7aQc2RsNX-ZduRr_9E3Oe_0Ax_DBgH0pfeBHM7Zr6U9suOG3ChgSPwXTnfOjvUaKnXpKqh_5bJAO2nrFJ1VrKxtwx3q_94dP_uLNhPIn61vdjA2
p429
sVpath
p430
g9
sVhttpOnly
p431
I01
sVsecure
p432
I00
sa.